; Function Attrs: mustprogress nofree norecurse nosync nounwind sspstrong willreturn memory(argmem: read) uwtable
define internal range(i32 0, 2) i32 @exec_count_equal(ptr noundef readonly captures(none) %0, ptr noundef readonly captures(none) %1) #4 {
  %3 = load i64, ptr %0, align 8
  %4 = load i64, ptr %1, align 8
  %5 = icmp eq i64 %3, %4
  br i1 %5, label %6, label %13

6:                                                ; preds = %2
  %7 = getelementptr inbounds nuw i8, ptr %0, i64 24
  %8 = load i64, ptr %7, align 8
  %9 = getelementptr inbounds nuw i8, ptr %1, i64 24
  %10 = load i64, ptr %9, align 8
  %11 = icmp eq i64 %8, %10
  %12 = zext i1 %11 to i32
  br label %13

13:                                               ; preds = %6, %2
  %14 = phi i32 [ 0, %2 ], [ %12, %6 ]
  ret i32 %14
}